; Function Attrs: mustprogress uwtable
define hidden void @_ZN16fpa2bv_converter16mk_rounding_modeEiR7obj_refI4expr11ast_managerE(ptr noundef nonnull align 8 dereferenceable(496) %0, i32 noundef %1, ptr noundef nonnull align 8 captures(none) dereferenceable(16) %2) local_unnamed_addr #3 align 2 {
  %4 = alloca ptr, align 8
  switch i32 %1, label %85 [
    i32 0, label %5
    i32 1, label %21
    i32 2, label %37
    i32 3, label %53
    i32 4, label %69
  ]

5:                                                ; preds = %3
  %6 = getelementptr inbounds nuw i8, ptr %0, i64 88
  %7 = tail call noundef ptr @_ZNK7bv_util10mk_numeralEmj(ptr noundef nonnull align 8 dereferenceable(24) %6, i64 noundef 0, i32 noundef 3)
  %.not.i = icmp eq ptr %7, null
  br i1 %.not.i, label %11, label %_ZN11ast_manager7inc_refEP3ast.exit.i

_ZN11ast_manager7inc_refEP3ast.exit.i:            ; preds = %5
  %8 = getelementptr inbounds nuw i8, ptr %7, i64 8
  %9 = load i32, ptr %8, align 4, !tbaa !125
  %10 = add i32 %9, 1
  store i32 %10, ptr %8, align 4, !tbaa !125
  br label %11

11:                                               ; preds = %_ZN11ast_manager7inc_refEP3ast.exit.i, %5
  %12 = load ptr, ptr %2, align 8, !tbaa !164
  %.not.i4.i = icmp eq ptr %12, null
  br i1 %.not.i4.i, label %_ZN7obj_refI4expr11ast_managerEaSEPS0_.exit, label %13

13:                                               ; preds = %11
  %14 = getelementptr inbounds nuw i8, ptr %2, i64 8
  %15 = load ptr, ptr %14, align 8, !tbaa !166
  %16 = getelementptr inbounds nuw i8, ptr %12, i64 8
  %17 = load i32, ptr %16, align 4, !tbaa !125
  %18 = add i32 %17, -1
  store i32 %18, ptr %16, align 4, !tbaa !125
  %19 = icmp eq i32 %18, 0
  br i1 %19, label %20, label %_ZN7obj_refI4expr11ast_managerEaSEPS0_.exit

20:                                               ; preds = %13
  tail call void @_ZN11ast_manager11delete_nodeEP3ast(ptr noundef nonnull align 8 dereferenceable(976) %15, ptr noundef nonnull %12)
  br label %_ZN7obj_refI4expr11ast_managerEaSEPS0_.exit

_ZN7obj_refI4expr11ast_managerEaSEPS0_.exit:      ; preds = %11, %13, %20
  store ptr %7, ptr %2, align 8, !tbaa !164
  br label %86

21:                                               ; preds = %3
  %22 = getelementptr inbounds nuw i8, ptr %0, i64 88
  %23 = tail call noundef ptr @_ZNK7bv_util10mk_numeralEmj(ptr noundef nonnull align 8 dereferenceable(24) %22, i64 noundef 1, i32 noundef 3)
  %.not.i8 = icmp eq ptr %23, null
  br i1 %.not.i8, label %27, label %_ZN11ast_manager7inc_refEP3ast.exit.i9

_ZN11ast_manager7inc_refEP3ast.exit.i9:           ; preds = %21
  %24 = getelementptr inbounds nuw i8, ptr %23, i64 8
  %25 = load i32, ptr %24, align 4, !tbaa !125
  %26 = add i32 %25, 1
  store i32 %26, ptr %24, align 4, !tbaa !125
  br label %27

27:                                               ; preds = %_ZN11ast_manager7inc_refEP3ast.exit.i9, %21
  %28 = load ptr, ptr %2, align 8, !tbaa !164
  %.not.i4.i10 = icmp eq ptr %28, null
  br i1 %.not.i4.i10, label %_ZN7obj_refI4expr11ast_managerEaSEPS0_.exit11, label %29

29:                                               ; preds = %27
  %30 = getelementptr inbounds nuw i8, ptr %2, i64 8
  %31 = load ptr, ptr %30, align 8, !tbaa !166
  %32 = getelementptr inbounds nuw i8, ptr %28, i64 8
  %33 = load i32, ptr %32, align 4, !tbaa !125
  %34 = add i32 %33, -1
  store i32 %34, ptr %32, align 4, !tbaa !125
  %35 = icmp eq i32 %34, 0
  br i1 %35, label %36, label %_ZN7obj_refI4expr11ast_managerEaSEPS0_.exit11

36:                                               ; preds = %29
  tail call void @_ZN11ast_manager11delete_nodeEP3ast(ptr noundef nonnull align 8 dereferenceable(976) %31, ptr noundef nonnull %28)
  br label %_ZN7obj_refI4expr11ast_managerEaSEPS0_.exit11

_ZN7obj_refI4expr11ast_managerEaSEPS0_.exit11:    ; preds = %27, %29, %36
  store ptr %23, ptr %2, align 8, !tbaa !164
  br label %86

37:                                               ; preds = %3
  %38 = getelementptr inbounds nuw i8, ptr %0, i64 88
  %39 = tail call noundef ptr @_ZNK7bv_util10mk_numeralEmj(ptr noundef nonnull align 8 dereferenceable(24) %38, i64 noundef 2, i32 noundef 3)
  %.not.i12 = icmp eq ptr %39, null
  br i1 %.not.i12, label %43, label %_ZN11ast_manager7inc_refEP3ast.exit.i13

_ZN11ast_manager7inc_refEP3ast.exit.i13:          ; preds = %37
  %40 = getelementptr inbounds nuw i8, ptr %39, i64 8
  %41 = load i32, ptr %40, align 4, !tbaa !125
  %42 = add i32 %41, 1
  store i32 %42, ptr %40, align 4, !tbaa !125
  br label %43

43:                                               ; preds = %_ZN11ast_manager7inc_refEP3ast.exit.i13, %37
  %44 = load ptr, ptr %2, align 8, !tbaa !164
  %.not.i4.i14 = icmp eq ptr %44, null
  br i1 %.not.i4.i14, label %_ZN7obj_refI4expr11ast_managerEaSEPS0_.exit15, label %45

45:                                               ; preds = %43
  %46 = getelementptr inbounds nuw i8, ptr %2, i64 8
  %47 = load ptr, ptr %46, align 8, !tbaa !166
  %48 = getelementptr inbounds nuw i8, ptr %44, i64 8
  %49 = load i32, ptr %48, align 4, !tbaa !125
  %50 = add i32 %49, -1
  store i32 %50, ptr %48, align 4, !tbaa !125
  %51 = icmp eq i32 %50, 0
  br i1 %51, label %52, label %_ZN7obj_refI4expr11ast_managerEaSEPS0_.exit15

52:                                               ; preds = %45
  tail call void @_ZN11ast_manager11delete_nodeEP3ast(ptr noundef nonnull align 8 dereferenceable(976) %47, ptr noundef nonnull %44)
  br label %_ZN7obj_refI4expr11ast_managerEaSEPS0_.exit15

_ZN7obj_refI4expr11ast_managerEaSEPS0_.exit15:    ; preds = %43, %45, %52
  store ptr %39, ptr %2, align 8, !tbaa !164
  br label %86

53:                                               ; preds = %3
  %54 = getelementptr inbounds nuw i8, ptr %0, i64 88
  %55 = tail call noundef ptr @_ZNK7bv_util10mk_numeralEmj(ptr noundef nonnull align 8 dereferenceable(24) %54, i64 noundef 3, i32 noundef 3)
  %.not.i16 = icmp eq ptr %55, null
  br i1 %.not.i16, label %59, label %_ZN11ast_manager7inc_refEP3ast.exit.i17

_ZN11ast_manager7inc_refEP3ast.exit.i17:          ; preds = %53
  %56 = getelementptr inbounds nuw i8, ptr %55, i64 8
  %57 = load i32, ptr %56, align 4, !tbaa !125
  %58 = add i32 %57, 1
  store i32 %58, ptr %56, align 4, !tbaa !125
  br label %59

59:                                               ; preds = %_ZN11ast_manager7inc_refEP3ast.exit.i17, %53
  %60 = load ptr, ptr %2, align 8, !tbaa !164
  %.not.i4.i18 = icmp eq ptr %60, null
  br i1 %.not.i4.i18, label %_ZN7obj_refI4expr11ast_managerEaSEPS0_.exit19, label %61

61:                                               ; preds = %59
  %62 = getelementptr inbounds nuw i8, ptr %2, i64 8
  %63 = load ptr, ptr %62, align 8, !tbaa !166
  %64 = getelementptr inbounds nuw i8, ptr %60, i64 8
  %65 = load i32, ptr %64, align 4, !tbaa !125
  %66 = add i32 %65, -1
  store i32 %66, ptr %64, align 4, !tbaa !125
  %67 = icmp eq i32 %66, 0
  br i1 %67, label %68, label %_ZN7obj_refI4expr11ast_managerEaSEPS0_.exit19

68:                                               ; preds = %61
  tail call void @_ZN11ast_manager11delete_nodeEP3ast(ptr noundef nonnull align 8 dereferenceable(976) %63, ptr noundef nonnull %60)
  br label %_ZN7obj_refI4expr11ast_managerEaSEPS0_.exit19

_ZN7obj_refI4expr11ast_managerEaSEPS0_.exit19:    ; preds = %59, %61, %68
  store ptr %55, ptr %2, align 8, !tbaa !164
  br label %86

69:                                               ; preds = %3
  %70 = getelementptr inbounds nuw i8, ptr %0, i64 88
  %71 = tail call noundef ptr @_ZNK7bv_util10mk_numeralEmj(ptr noundef nonnull align 8 dereferenceable(24) %70, i64 noundef 4, i32 noundef 3)
  %.not.i20 = icmp eq ptr %71, null
  br i1 %.not.i20, label %75, label %_ZN11ast_manager7inc_refEP3ast.exit.i21

_ZN11ast_manager7inc_refEP3ast.exit.i21:          ; preds = %69
  %72 = getelementptr inbounds nuw i8, ptr %71, i64 8
  %73 = load i32, ptr %72, align 4, !tbaa !125
  %74 = add i32 %73, 1
  store i32 %74, ptr %72, align 4, !tbaa !125
  br label %75

75:                                               ; preds = %_ZN11ast_manager7inc_refEP3ast.exit.i21, %69
  %76 = load ptr, ptr %2, align 8, !tbaa !164
  %.not.i4.i22 = icmp eq ptr %76, null
  br i1 %.not.i4.i22, label %_ZN7obj_refI4expr11ast_managerEaSEPS0_.exit23, label %77

77:                                               ; preds = %75
  %78 = getelementptr inbounds nuw i8, ptr %2, i64 8
  %79 = load ptr, ptr %78, align 8, !tbaa !166
  %80 = getelementptr inbounds nuw i8, ptr %76, i64 8
  %81 = load i32, ptr %80, align 4, !tbaa !125
  %82 = add i32 %81, -1
  store i32 %82, ptr %80, align 4, !tbaa !125
  %83 = icmp eq i32 %82, 0
  br i1 %83, label %84, label %_ZN7obj_refI4expr11ast_managerEaSEPS0_.exit23

84:                                               ; preds = %77
  tail call void @_ZN11ast_manager11delete_nodeEP3ast(ptr noundef nonnull align 8 dereferenceable(976) %79, ptr noundef nonnull %76)
  br label %_ZN7obj_refI4expr11ast_managerEaSEPS0_.exit23

_ZN7obj_refI4expr11ast_managerEaSEPS0_.exit23:    ; preds = %75, %77, %84
  store ptr %71, ptr %2, align 8, !tbaa !164
  br label %86

85:                                               ; preds = %3
  tail call void @_Z26notify_assertion_violationPKciS0_(ptr noundef nonnull @.str.6, i32 noundef 3923, ptr noundef nonnull @.str.7)
  tail call void @_Z18invoke_exit_actionj(i32 noundef 114)
  %.pre = load ptr, ptr %2, align 8, !tbaa !164
  br label %86

86:                                               ; preds = %85, %_ZN7obj_refI4expr11ast_managerEaSEPS0_.exit23, %_ZN7obj_refI4expr11ast_managerEaSEPS0_.exit19, %_ZN7obj_refI4expr11ast_managerEaSEPS0_.exit15, %_ZN7obj_refI4expr11ast_managerEaSEPS0_.exit11, %_ZN7obj_refI4expr11ast_managerEaSEPS0_.exit
  %87 = phi ptr [ %.pre, %85 ], [ %71, %_ZN7obj_refI4expr11ast_managerEaSEPS0_.exit23 ], [ %55, %_ZN7obj_refI4expr11ast_managerEaSEPS0_.exit19 ], [ %39, %_ZN7obj_refI4expr11ast_managerEaSEPS0_.exit15 ], [ %23, %_ZN7obj_refI4expr11ast_managerEaSEPS0_.exit11 ], [ %7, %_ZN7obj_refI4expr11ast_managerEaSEPS0_.exit ]
  %88 = getelementptr inbounds nuw i8, ptr %0, i64 288
  call void @llvm.lifetime.start.p0(i64 8, ptr nonnull %4)
  store ptr %87, ptr %4, align 8, !tbaa !122
  %89 = load ptr, ptr %88, align 8, !tbaa !176
  %90 = getelementptr inbounds nuw i8, ptr %0, i64 304
  %91 = load i32, ptr %90, align 8, !tbaa !158
  %92 = tail call noundef ptr @_ZN11ast_manager7mk_sortEiijPK9parameter(ptr noundef nonnull align 8 dereferenceable(976) %89, i32 noundef %91, i32 noundef 1, i32 noundef 0, ptr noundef null)
  %93 = call noundef ptr @_ZN11ast_manager6mk_appEiijPK9parameterjPKP4exprP4sort(ptr noundef nonnull align 8 dereferenceable(976) %89, i32 noundef %91, i32 noundef 49, i32 noundef 0, ptr noundef null, i32 noundef 1, ptr noundef nonnull %4, ptr noundef %92)
  call void @llvm.lifetime.end.p0(i64 8, ptr nonnull %4)
  %.not.i24 = icmp eq ptr %93, null
  br i1 %.not.i24, label %97, label %_ZN11ast_manager7inc_refEP3ast.exit.i25

_ZN11ast_manager7inc_refEP3ast.exit.i25:          ; preds = %86
  %94 = getelementptr inbounds nuw i8, ptr %93, i64 8
  %95 = load i32, ptr %94, align 4, !tbaa !125
  %96 = add i32 %95, 1
  store i32 %96, ptr %94, align 4, !tbaa !125
  br label %97

97:                                               ; preds = %_ZN11ast_manager7inc_refEP3ast.exit.i25, %86
  %98 = load ptr, ptr %2, align 8, !tbaa !164
  %.not.i4.i26 = icmp eq ptr %98, null
  br i1 %.not.i4.i26, label %_ZN7obj_refI4expr11ast_managerEaSEPS0_.exit27, label %99

99:                                               ; preds = %97
  %100 = getelementptr inbounds nuw i8, ptr %2, i64 8
  %101 = load ptr, ptr %100, align 8, !tbaa !166
  %102 = getelementptr inbounds nuw i8, ptr %98, i64 8
  %103 = load i32, ptr %102, align 4, !tbaa !125
  %104 = add i32 %103, -1
  store i32 %104, ptr %102, align 4, !tbaa !125
  %105 = icmp eq i32 %104, 0
  br i1 %105, label %106, label %_ZN7obj_refI4expr11ast_managerEaSEPS0_.exit27

106:                                              ; preds = %99
  call void @_ZN11ast_manager11delete_nodeEP3ast(ptr noundef nonnull align 8 dereferenceable(976) %101, ptr noundef nonnull %98)
  br label %_ZN7obj_refI4expr11ast_managerEaSEPS0_.exit27

_ZN7obj_refI4expr11ast_managerEaSEPS0_.exit27:    ; preds = %97, %99, %106
  store ptr %93, ptr %2, align 8, !tbaa !164
  ret void
}